target datalayout = "e-m:e-p270:32:32-p271:32:32-p272:64:64-i64:64-i128:128-f80:128-n8:16:32:64-S128"
target triple = "x86_64-pc-linux-gnu"

%struct.access_mask_info = type { ptr, ptr, ptr, ptr }
%struct.expert_field = type { i32, i32 }

@spoolss_printer_access_mask_info = hidden global %struct.access_mask_info { ptr @.str, ptr @spoolss_printer_specific_rights, ptr null, ptr null }, align 8
@ett_DEVMODE_CTR = internal global i32 0, align 4
@.str.1 = private unnamed_addr constant [21 x i8] c"Devicemode container\00", align 1
@hf_devmodectr_size = internal global i32 0, align 4
@.str.2 = private unnamed_addr constant [11 x i8] c"Devicemode\00", align 1
@hf_level = internal global i32 0, align 4
@ett_SPOOL_PRINTER_INFO_LEVEL = internal global i32 0, align 4
@.str.7 = private unnamed_addr constant [25 x i8] c"Spool printer info level\00", align 1
@hf_spool_printer_info_devmode_ptr = internal global i32 0, align 4
@hf_spool_printer_info_secdesc_ptr = internal global i32 0, align 4
@ei_spool_printer_info_level = internal global %struct.expert_field zeroinitializer, align 4
@.str.8 = private unnamed_addr constant [36 x i8] c"Unknown spool printer info level %d\00", align 1
@hf_secdescbuf_maxlen = internal global i32 0, align 4
@hf_secdescbuf_undoc = internal global i32 0, align 4
@hf_secdescbuf_len = internal global i32 0, align 4
@ett_SEC_DESC_BUF = internal global i32 0, align 4
@.str.778 = private unnamed_addr constant [27 x i8] c"Security descriptor buffer\00", align 1

; Function Attrs: nounwind uwtable
define internal i32 @dissect_SEC_DESC_BUF(ptr noundef %0, i32 noundef %1, ptr noundef %2, ptr noundef %3, ptr noundef %4, ptr noundef %5) #0 {
  %7 = alloca ptr, align 8
  %8 = alloca i32, align 4
  %9 = alloca ptr, align 8
  %10 = alloca ptr, align 8
  %11 = alloca ptr, align 8
  %12 = alloca ptr, align 8
  %13 = alloca ptr, align 8
  %14 = alloca i32, align 4
  store ptr %0, ptr %7, align 8
  store i32 %1, ptr %8, align 4
  store ptr %2, ptr %9, align 8
  store ptr %3, ptr %10, align 8
  store ptr %4, ptr %11, align 8
  store ptr %5, ptr %12, align 8
  %15 = load ptr, ptr %10, align 8
  %16 = load ptr, ptr %7, align 8
  %17 = load i32, ptr %8, align 4
  %18 = load i32, ptr @ett_SEC_DESC_BUF, align 4
  %19 = call ptr @proto_tree_add_subtree(ptr noundef %15, ptr noundef %16, i32 noundef %17, i32 noundef 0, i32 noundef %18, ptr noundef null, ptr noundef @.str.778)
  store ptr %19, ptr %13, align 8
  %20 = load ptr, ptr %7, align 8
  %21 = load i32, ptr %8, align 4
  %22 = load ptr, ptr %9, align 8
  %23 = load ptr, ptr %13, align 8
  %24 = load ptr, ptr %11, align 8
  %25 = load ptr, ptr %12, align 8
  %26 = load i32, ptr @hf_secdescbuf_maxlen, align 4
  %27 = call i32 @dissect_ndr_uint32(ptr noundef %20, i32 noundef %21, ptr noundef %22, ptr noundef %23, ptr noundef %24, ptr noundef %25, i32 noundef %26, ptr noundef null)
  store i32 %27, ptr %8, align 4
  %28 = load ptr, ptr %7, align 8
  %29 = load i32, ptr %8, align 4
  %30 = load ptr, ptr %9, align 8
  %31 = load ptr, ptr %13, align 8
  %32 = load ptr, ptr %11, align 8
  %33 = load ptr, ptr %12, align 8
  %34 = load i32, ptr @hf_secdescbuf_undoc, align 4
  %35 = call i32 @dissect_ndr_uint32(ptr noundef %28, i32 noundef %29, ptr noundef %30, ptr noundef %31, ptr noundef %32, ptr noundef %33, i32 noundef %34, ptr noundef null)
  store i32 %35, ptr %8, align 4
  %36 = load ptr, ptr %7, align 8
  %37 = load i32, ptr %8, align 4
  %38 = load ptr, ptr %9, align 8
  %39 = load ptr, ptr %13, align 8
  %40 = load ptr, ptr %11, align 8
  %41 = load ptr, ptr %12, align 8
  %42 = load i32, ptr @hf_secdescbuf_len, align 4
  %43 = call i32 @dissect_ndr_uint32(ptr noundef %36, i32 noundef %37, ptr noundef %38, ptr noundef %39, ptr noundef %40, ptr noundef %41, i32 noundef %42, ptr noundef %14)
  store i32 %43, ptr %8, align 4
  %44 = load ptr, ptr %7, align 8
  %45 = load i32, ptr %8, align 4
  %46 = load ptr, ptr %9, align 8
  %47 = load ptr, ptr %13, align 8
  %48 = load ptr, ptr %12, align 8
  %49 = load i32, ptr %14, align 4
  %50 = call i32 @dissect_nt_sec_desc(ptr noundef %44, i32 noundef %45, ptr noundef %46, ptr noundef %47, ptr noundef %48, i32 noundef 1, i32 noundef %49, ptr noundef @spoolss_printer_access_mask_info)
  %51 = load i32, ptr %14, align 4
  %52 = load i32, ptr %8, align 4
  %53 = add i32 %52, %51
  store i32 %53, ptr %8, align 4
  %54 = load i32, ptr %8, align 4
  ret i32 %54
}

; Function Attrs: nounwind uwtable
define hidden i32 @dissect_DEVMODE_CTR(ptr noundef %0, i32 noundef %1, ptr noundef %2, ptr noundef %3, ptr noundef %4, ptr noundef %5) #0 {
  %7 = alloca ptr, align 8
  %8 = alloca i32, align 4
  %9 = alloca ptr, align 8
  %10 = alloca ptr, align 8
  %11 = alloca ptr, align 8
  %12 = alloca ptr, align 8
  %13 = alloca ptr, align 8
  %14 = alloca i32, align 4
  store ptr %0, ptr %7, align 8
  store i32 %1, ptr %8, align 4
  store ptr %2, ptr %9, align 8
  store ptr %3, ptr %10, align 8
  store ptr %4, ptr %11, align 8
  store ptr %5, ptr %12, align 8
  %15 = load ptr, ptr %10, align 8
  %16 = load ptr, ptr %7, align 8
  %17 = load i32, ptr %8, align 4
  %18 = load i32, ptr @ett_DEVMODE_CTR, align 4
  %19 = call ptr @proto_tree_add_subtree(ptr noundef %15, ptr noundef %16, i32 noundef %17, i32 noundef 0, i32 noundef %18, ptr noundef null, ptr noundef @.str.1)
  store ptr %19, ptr %13, align 8
  %20 = load ptr, ptr %7, align 8
  %21 = load i32, ptr %8, align 4
  %22 = load ptr, ptr %9, align 8
  %23 = load ptr, ptr %13, align 8
  %24 = load ptr, ptr %11, align 8
  %25 = load ptr, ptr %12, align 8
  %26 = load i32, ptr @hf_devmodectr_size, align 4
  %27 = call i32 @dissect_ndr_uint32(ptr noundef %20, i32 noundef %21, ptr noundef %22, ptr noundef %23, ptr noundef %24, ptr noundef %25, i32 noundef %26, ptr noundef %14)
  store i32 %27, ptr %8, align 4
  %28 = load ptr, ptr %7, align 8
  %29 = load i32, ptr %8, align 4
  %30 = load ptr, ptr %9, align 8
  %31 = load ptr, ptr %13, align 8
  %32 = load ptr, ptr %11, align 8
  %33 = load ptr, ptr %12, align 8
  %34 = call i32 @dissect_ndr_pointer(ptr noundef %28, i32 noundef %29, ptr noundef %30, ptr noundef %31, ptr noundef %32, ptr noundef %33, ptr noundef @dissect_DEVMODE, i32 noundef 2, ptr noundef @.str.2, i32 noundef -1)
  store i32 %34, ptr %8, align 4
  %35 = load i32, ptr %8, align 4
  ret i32 %35
}

; Function Attrs: nounwind uwtable
define hidden i32 @dissect_SPOOL_PRINTER_INFO(ptr noundef %0, i32 noundef %1, ptr noundef %2, ptr noundef %3, ptr noundef %4, ptr noundef %5) #0 {
  %7 = alloca ptr, align 8
  %8 = alloca i32, align 4
  %9 = alloca ptr, align 8
  %10 = alloca ptr, align 8
  %11 = alloca ptr, align 8
  %12 = alloca ptr, align 8
  %13 = alloca ptr, align 8
  %14 = alloca i32, align 4
  %15 = alloca ptr, align 8
  %16 = alloca i32, align 4
  %17 = alloca i32, align 4
  store ptr %0, ptr %7, align 8
  store i32 %1, ptr %8, align 4
  store ptr %2, ptr %9, align 8
  store ptr %3, ptr %10, align 8
  store ptr %4, ptr %11, align 8
  store ptr %5, ptr %12, align 8
  %18 = load ptr, ptr %10, align 8
  %19 = load ptr, ptr %7, align 8
  %20 = load i32, ptr %8, align 4
  %21 = load i32, ptr @ett_SPOOL_PRINTER_INFO_LEVEL, align 4
  %22 = call ptr @proto_tree_add_subtree(ptr noundef %18, ptr noundef %19, i32 noundef %20, i32 noundef 0, i32 noundef %21, ptr noundef %15, ptr noundef @.str.7)
  store ptr %22, ptr %13, align 8
  %23 = load ptr, ptr %7, align 8
  %24 = load i32, ptr %8, align 4
  %25 = load ptr, ptr %9, align 8
  %26 = load ptr, ptr %13, align 8
  %27 = load ptr, ptr %11, align 8
  %28 = load ptr, ptr %12, align 8
  %29 = load i32, ptr @hf_level, align 4
  %30 = call i32 @dissect_ndr_uint32(ptr noundef %23, i32 noundef %24, ptr noundef %25, ptr noundef %26, ptr noundef %27, ptr noundef %28, i32 noundef %29, ptr noundef %14)
  store i32 %30, ptr %8, align 4
  %31 = load i32, ptr %14, align 4
  switch i32 %31, label %72 [
    i32 3, label %32
    i32 2, label %71
  ]

32:                                               ; preds = %6
  %33 = load ptr, ptr %7, align 8
  %34 = load i32, ptr %8, align 4
  %35 = load ptr, ptr %9, align 8
  %36 = load ptr, ptr %13, align 8
  %37 = load ptr, ptr %11, align 8
  %38 = load ptr, ptr %12, align 8
  %39 = load i32, ptr @hf_spool_printer_info_devmode_ptr, align 4
  %40 = call i32 @dissect_ndr_uint32(ptr noundef %33, i32 noundef %34, ptr noundef %35, ptr noundef %36, ptr noundef %37, ptr noundef %38, i32 noundef %39, ptr noundef %16)
  store i32 %40, ptr %8, align 4
  %41 = load ptr, ptr %7, align 8
  %42 = load i32, ptr %8, align 4
  %43 = load ptr, ptr %9, align 8
  %44 = load ptr, ptr %13, align 8
  %45 = load ptr, ptr %11, align 8
  %46 = load ptr, ptr %12, align 8
  %47 = load i32, ptr @hf_spool_printer_info_secdesc_ptr, align 4
  %48 = call i32 @dissect_ndr_uint32(ptr noundef %41, i32 noundef %42, ptr noundef %43, ptr noundef %44, ptr noundef %45, ptr noundef %46, i32 noundef %47, ptr noundef %17)
  store i32 %48, ptr %8, align 4
  %49 = load i32, ptr %16, align 4
  %50 = icmp ne i32 %49, 0
  br i1 %50, label %51, label %59

51:                                               ; preds = %32
  %52 = load ptr, ptr %7, align 8
  %53 = load i32, ptr %8, align 4
  %54 = load ptr, ptr %9, align 8
  %55 = load ptr, ptr %13, align 8
  %56 = load ptr, ptr %11, align 8
  %57 = load ptr, ptr %12, align 8
  %58 = call i32 @dissect_DEVMODE_CTR(ptr noundef %52, i32 noundef %53, ptr noundef %54, ptr noundef %55, ptr noundef %56, ptr noundef %57)
  store i32 %58, ptr %8, align 4
  br label %59

59:                                               ; preds = %51, %32
  %60 = load i32, ptr %17, align 4
  %61 = icmp ne i32 %60, 0
  br i1 %61, label %62, label %70

62:                                               ; preds = %59
  %63 = load ptr, ptr %7, align 8
  %64 = load i32, ptr %8, align 4
  %65 = load ptr, ptr %9, align 8
  %66 = load ptr, ptr %13, align 8
  %67 = load ptr, ptr %11, align 8
  %68 = load ptr, ptr %12, align 8
  %69 = call i32 @dissect_SEC_DESC_BUF(ptr noundef %63, i32 noundef %64, ptr noundef %65, ptr noundef %66, ptr noundef %67, ptr noundef %68)
  store i32 %69, ptr %8, align 4
  br label %70

70:                                               ; preds = %62, %59
  br label %77

71:                                               ; preds = %6
  br label %72

72:                                               ; preds = %71, %6
  %73 = load ptr, ptr %9, align 8
  %74 = load ptr, ptr %15, align 8
  %75 = load i32, ptr %14, align 4
  %76 = call ptr (ptr, ptr, ptr, ptr, ...) @expert_add_info_format(ptr noundef %73, ptr noundef %74, ptr noundef @ei_spool_printer_info_level, ptr noundef @.str.8, i32 noundef %75)
  br label %77

77:                                               ; preds = %72, %70
  %78 = load i32, ptr %8, align 4
  ret i32 %78
}