; Function Attrs: nounwind uwtable
define hidden i32 @dissect_SPOOL_PRINTER_INFO(ptr noundef %0, i32 noundef %1, ptr noundef %2, ptr noundef %3, ptr noundef %4, ptr noundef %5) local_unnamed_addr #0 {
  %7 = alloca i32, align 4
  %8 = alloca i32, align 4
  %9 = alloca i32, align 4
  %10 = alloca ptr, align 8
  %11 = alloca i32, align 4
  %12 = alloca i32, align 4
  %13 = load i32, ptr @ett_SPOOL_PRINTER_INFO_LEVEL, align 4
  %14 = call ptr @proto_tree_add_subtree(ptr noundef %3, ptr noundef %0, i32 noundef %1, i32 noundef 0, i32 noundef %13, ptr noundef nonnull %10, ptr noundef nonnull @.str.7) #5
  %15 = load i32, ptr @hf_level, align 4
  %16 = call i32 @dissect_ndr_uint32(ptr noundef %0, i32 noundef %1, ptr noundef %2, ptr noundef %14, ptr noundef %4, ptr noundef %5, i32 noundef %15, ptr noundef nonnull %9) #5
  %17 = load i32, ptr %9, align 4
  %cond = icmp eq i32 %17, 3
  br i1 %cond, label %18, label %45

18:                                               ; preds = %6
  %19 = load i32, ptr @hf_spool_printer_info_devmode_ptr, align 4
  %20 = call i32 @dissect_ndr_uint32(ptr noundef %0, i32 noundef %16, ptr noundef %2, ptr noundef %14, ptr noundef %4, ptr noundef %5, i32 noundef %19, ptr noundef nonnull %11) #5
  %21 = load i32, ptr @hf_spool_printer_info_secdesc_ptr, align 4
  %22 = call i32 @dissect_ndr_uint32(ptr noundef %0, i32 noundef %20, ptr noundef %2, ptr noundef %14, ptr noundef %4, ptr noundef %5, i32 noundef %21, ptr noundef nonnull %12) #5
  %23 = load i32, ptr %11, align 4
  %.not = icmp eq i32 %23, 0
  br i1 %.not, label %30, label %24

24:                                               ; preds = %18
  call void @llvm.lifetime.start.p0(i64 4, ptr nonnull %8)
  %25 = load i32, ptr @ett_DEVMODE_CTR, align 4
  %26 = call ptr @proto_tree_add_subtree(ptr noundef %14, ptr noundef %0, i32 noundef %22, i32 noundef 0, i32 noundef %25, ptr noundef null, ptr noundef nonnull @.str.1) #5
  %27 = load i32, ptr @hf_devmodectr_size, align 4
  %28 = call i32 @dissect_ndr_uint32(ptr noundef %0, i32 noundef %22, ptr noundef %2, ptr noundef %26, ptr noundef %4, ptr noundef %5, i32 noundef %27, ptr noundef nonnull %8) #5
  %29 = call i32 @dissect_ndr_pointer(ptr noundef %0, i32 noundef %28, ptr noundef %2, ptr noundef %26, ptr noundef %4, ptr noundef %5, ptr noundef nonnull @dissect_DEVMODE, i32 noundef 2, ptr noundef nonnull @.str.2, i32 noundef -1) #5
  call void @llvm.lifetime.end.p0(i64 4, ptr nonnull %8)
  br label %30

30:                                               ; preds = %24, %18
  %.0 = phi i32 [ %29, %24 ], [ %22, %18 ]
  %31 = load i32, ptr %12, align 4
  %.not35 = icmp eq i32 %31, 0
  br i1 %.not35, label %48, label %32

32:                                               ; preds = %30
  call void @llvm.lifetime.start.p0(i64 4, ptr nonnull %7)
  %33 = load i32, ptr @ett_SEC_DESC_BUF, align 4
  %34 = call ptr @proto_tree_add_subtree(ptr noundef %14, ptr noundef %0, i32 noundef %.0, i32 noundef 0, i32 noundef %33, ptr noundef null, ptr noundef nonnull @.str.778) #5
  %35 = load i32, ptr @hf_secdescbuf_maxlen, align 4
  %36 = call i32 @dissect_ndr_uint32(ptr noundef %0, i32 noundef %.0, ptr noundef %2, ptr noundef %34, ptr noundef %4, ptr noundef %5, i32 noundef %35, ptr noundef null) #5
  %37 = load i32, ptr @hf_secdescbuf_undoc, align 4
  %38 = call i32 @dissect_ndr_uint32(ptr noundef %0, i32 noundef %36, ptr noundef %2, ptr noundef %34, ptr noundef %4, ptr noundef %5, i32 noundef %37, ptr noundef null) #5
  %39 = load i32, ptr @hf_secdescbuf_len, align 4
  %40 = call i32 @dissect_ndr_uint32(ptr noundef %0, i32 noundef %38, ptr noundef %2, ptr noundef %34, ptr noundef %4, ptr noundef %5, i32 noundef %39, ptr noundef nonnull %7) #5
  %41 = load i32, ptr %7, align 4
  %42 = call i32 @dissect_nt_sec_desc(ptr noundef %0, i32 noundef %40, ptr noundef %2, ptr noundef %34, ptr noundef %5, i32 noundef 1, i32 noundef %41, ptr noundef nonnull @spoolss_printer_access_mask_info) #5
  %43 = load i32, ptr %7, align 4
  %44 = add i32 %43, %40
  call void @llvm.lifetime.end.p0(i64 4, ptr nonnull %7)
  br label %48

45:                                               ; preds = %6
  %46 = load ptr, ptr %10, align 8
  %47 = call ptr (ptr, ptr, ptr, ptr, ...) @expert_add_info_format(ptr noundef %2, ptr noundef %46, ptr noundef nonnull @ei_spool_printer_info_level, ptr noundef nonnull @.str.8, i32 noundef %17) #5
  br label %48

48:                                               ; preds = %30, %32, %45
  %.1 = phi i32 [ %44, %32 ], [ %.0, %30 ], [ %16, %45 ]
  ret i32 %.1
}